	.file	"Sum5.c"
	.text
	.globl	add5
	.type	add5, @function
add5:
.LFB0:
	.cfi_startproc
	pushl	%ebp
	.cfi_def_cfa_offset 8
	.cfi_offset 5, -8
	movl	%esp, %ebp
	.cfi_def_cfa_register 5
	call	__x86.get_pc_thunk.ax
	addl	$_GLOBAL_OFFSET_TABLE_, %eax
	movl	8(%ebp), %edx
	movl	12(%ebp), %eax
	addl	%eax, %edx
	movl	16(%ebp), %eax
	addl	%eax, %edx
	movl	20(%ebp), %eax
	addl	%eax, %edx
	movl	24(%ebp), %eax
	addl	%edx, %eax
	popl	%ebp
	.cfi_restore 5
	.cfi_def_cfa 4, 4
	ret
	.cfi_endproc
.LFE0:
	.size	add5, .-add5
	.globl	add10
	.type	add10, @function
add10:
.LFB1:
	.cfi_startproc
	pushl	%ebp
	.cfi_def_cfa_offset 8
	.cfi_offset 5, -8
	movl	%esp, %ebp
	.cfi_def_cfa_register 5
	pushl	%ebx
	.cfi_offset 3, -12
	call	__x86.get_pc_thunk.ax
	addl	$_GLOBAL_OFFSET_TABLE_, %eax
	pushl	24(%ebp)
	pushl	20(%ebp)
	pushl	16(%ebp)
	pushl	12(%ebp)
	pushl	8(%ebp)
	call	add5
	addl	$20, %esp
	movl	%eax, %ebx
	pushl	44(%ebp)
	pushl	40(%ebp)
	pushl	36(%ebp)
	pushl	32(%ebp)
	pushl	28(%ebp)
	call	add5
	addl	$20, %esp
	addl	%ebx, %eax
	movl	-4(%ebp), %ebx
	leave
	.cfi_restore 5
	.cfi_restore 3
	.cfi_def_cfa 4, 4
	ret
	.cfi_endproc
.LFE1:
	.size	add10, .-add10
	.section	.text.__x86.get_pc_thunk.ax,"axG",@progbits,__x86.get_pc_thunk.ax,comdat
	.globl	__x86.get_pc_thunk.ax
	.hidden	__x86.get_pc_thunk.ax
	.type	__x86.get_pc_thunk.ax, @function
__x86.get_pc_thunk.ax:
.LFB2:
	.cfi_startproc
	movl	(%esp), %eax
	ret
	.cfi_endproc
.LFE2:
	.ident	"GCC: (Ubuntu 7.5.0-3ubuntu1~18.04) 7.5.0"
	.section	.note.GNU-stack,"",@progbits
